TN:
SF:/home/juan/Qt/5.15.1/gcc_64/include/QtCore/qvector.h
FN:69,_ZN7QVectorI4EdgeEC2Ev
FNDA:5,_ZN7QVectorI4EdgeEC2Ev
FN:69,_ZN7QVectorIiEC2Ev
FNDA:6,_ZN7QVectorIiEC2Ev
FN:69,_ZN7QVectorIS_IiEEC2Ev
FNDA:1,_ZN7QVectorIS_IiEEC2Ev
FN:73,_ZN7QVectorI4EdgeED2Ev
FNDA:0,_ZN7QVectorI4EdgeED2Ev
FN:73,_ZN7QVectorIS_IiEED2Ev
FNDA:0,_ZN7QVectorIS_IiEED2Ev
FN:73,_ZN7QVectorIiED2Ev
FNDA:0,_ZN7QVectorIiED2Ev
FN:75,_ZN7QVectorIiEC2EOS0_
FNDA:5,_ZN7QVectorIiEC2EOS0_
FN:76,_ZN7QVectorIiEaSEOS0_
FNDA:4,_ZN7QVectorIiEaSEOS0_
FN:78,_ZN7QVectorIiE4swapERS0_
FNDA:8,_ZN7QVectorIiE4swapERS0_
FN:88,_ZNK7QVectorIiE4sizeEv
FNDA:22,_ZNK7QVectorIiE4sizeEv
FN:113,_ZNK7QVectorI4EdgeE10isDetachedEv
FNDA:46,_ZNK7QVectorI4EdgeE10isDetachedEv
FN:113,_ZNK7QVectorIiE10isDetachedEv
FNDA:778,_ZNK7QVectorIiE10isDetachedEv
FN:113,_ZNK7QVectorIS_IiEE10isDetachedEv
FNDA:696,_ZNK7QVectorIS_IiEE10isDetachedEv
FN:134,_ZN7QVectorIS_IiEE4dataEv
FNDA:344,_ZN7QVectorIS_IiEE4dataEv
FN:134,_ZN7QVectorIiE4dataEv
FNDA:378,_ZN7QVectorIiE4dataEv
FN:210,_ZN7QVectorIS_IiEE5beginEv
FNDA:1,_ZN7QVectorIS_IiEE5beginEv
FN:210,_ZN7QVectorI4EdgeE5beginEv
FNDA:10,_ZN7QVectorI4EdgeE5beginEv
FN:214,_ZN7QVectorI4EdgeE3endEv
FNDA:10,_ZN7QVectorI4EdgeE3endEv
FN:214,_ZN7QVectorIS_IiEE3endEv
FNDA:1,_ZN7QVectorIS_IiEE3endEv
FN:272,_ZN7QVectorIiE9push_backERKi
FNDA:12,_ZN7QVectorIiE9push_backERKi
FN:272,_ZN7QVectorIS_IiEE9push_backERKS0_
FNDA:4,_ZN7QVectorIS_IiEE9push_backERKS0_
FN:273,_ZN7QVectorI4EdgeE9push_backEOS0_
FNDA:6,_ZN7QVectorI4EdgeE9push_backEOS0_
FN:273,_ZN7QVectorIiE9push_backEOi
FNDA:10,_ZN7QVectorIiE9push_backEOi
FN:357,_ZN7QVectorI4EdgeE13copyConstructEPKS0_S3_PS0_
FNDA:0,_ZN7QVectorI4EdgeE13copyConstructEPKS0_S3_PS0_
FN:357,_ZN7QVectorIS_IiEE13copyConstructEPKS0_S3_PS0_
FNDA:0,_ZN7QVectorIS_IiEE13copyConstructEPKS0_S3_PS0_
FN:357,_ZN7QVectorIiE13copyConstructEPKiS2_Pi
FNDA:0,_ZN7QVectorIiE13copyConstructEPKiS2_Pi
FN:368,_ZN7QVectorIiE8destructEPiS1_
FNDA:0,_ZN7QVectorIiE8destructEPiS1_
FN:368,_ZN7QVectorIS_IiEE8destructEPS0_S2_
FNDA:0,_ZN7QVectorIS_IiEE8destructEPS0_S2_
FN:368,_ZN7QVectorI4EdgeE8destructEPS0_S2_
FNDA:0,_ZN7QVectorI4EdgeE8destructEPS0_S2_
FN:378,_ZN7QVectorIS_IiEEC2ERKS1_
FNDA:0,_ZN7QVectorIS_IiEEC2ERKS1_
FN:378,_ZN7QVectorIiEC2ERKS0_
FNDA:0,_ZN7QVectorIiEC2ERKS0_
FN:378,_ZN7QVectorI4EdgeEC2ERKS1_
FNDA:0,_ZN7QVectorI4EdgeEC2ERKS1_
FN:403,_ZN7QVectorIiE6detachEv
FNDA:378,_ZN7QVectorIiE6detachEv
FN:403,_ZN7QVectorIS_IiEE6detachEv
FNDA:346,_ZN7QVectorIS_IiEE6detachEv
FN:403,_ZN7QVectorI4EdgeE6detachEv
FNDA:20,_ZN7QVectorI4EdgeE6detachEv
FN:462,_ZN7QVectorIS_IiEEixEi
FNDA:344,_ZN7QVectorIS_IiEEixEi
FN:462,_ZN7QVectorIiEixEi
FNDA:378,_ZN7QVectorIiEixEi
FN:546,_ZN7QVectorIiEC2ESt16initializer_listIiE
FNDA:0,_ZN7QVectorIiEC2ESt16initializer_listIiE
FN:546,_ZN7QVectorIS_IiEEC2ESt16initializer_listIS0_E
FNDA:0,_ZN7QVectorIS_IiEEC2ESt16initializer_listIS0_E
FN:561,_ZN7QVectorIiEaSESt16initializer_listIiE
FNDA:4,_ZN7QVectorIiEaSESt16initializer_listIiE
FN:582,_ZN7QVectorI4EdgeE8freeDataEP15QTypedArrayDataIS0_E
FNDA:0,_ZN7QVectorI4EdgeE8freeDataEP15QTypedArrayDataIS0_E
FN:582,_ZN7QVectorIiE8freeDataEP15QTypedArrayDataIiE
FNDA:0,_ZN7QVectorIiE8freeDataEP15QTypedArrayDataIiE
FN:582,_ZN7QVectorIS_IiEE8freeDataEP15QTypedArrayDataIS0_E
FNDA:0,_ZN7QVectorIS_IiEE8freeDataEP15QTypedArrayDataIS0_E
FN:700,_ZN7QVectorIS_IiEE7reallocEi6QFlagsIN10QArrayData16AllocationOptionEE
FNDA:5,_ZN7QVectorIS_IiEE7reallocEi6QFlagsIN10QArrayData16AllocationOptionEE
FN:700,_ZN7QVectorI4EdgeE7reallocEi6QFlagsIN10QArrayData16AllocationOptionEE
FNDA:12,_ZN7QVectorI4EdgeE7reallocEi6QFlagsIN10QArrayData16AllocationOptionEE
FN:700,_ZN7QVectorIiE7reallocEi6QFlagsIN10QArrayData16AllocationOptionEE
FNDA:39,_ZN7QVectorIiE7reallocEi6QFlagsIN10QArrayData16AllocationOptionEE
FN:788,_ZN7QVectorIiE6appendERKi
FNDA:12,_ZN7QVectorIiE6appendERKi
FN:788,_ZN7QVectorIS_IiEE6appendERKS0_
FNDA:4,_ZN7QVectorIS_IiEE6appendERKS0_
FN:811,_ZN7QVectorI4EdgeE6appendEOS0_
FNDA:6,_ZN7QVectorI4EdgeE6appendEOS0_
FN:811,_ZN7QVectorIiE6appendEOi
FNDA:10,_ZN7QVectorIiE6appendEOi
DA:69,1
DA:69,6
DA:69,5
DA:73,0
DA:73,0
DA:73,0
DA:75,5
DA:76,4
DA:77,4
DA:78,8
DA:88,22
DA:113,778
DA:113,46
DA:113,696
DA:134,344
DA:134,378
DA:210,10
DA:210,1
DA:214,10
DA:214,1
DA:272,4
DA:272,12
DA:273,10
DA:273,6
DA:357,0
DA:360,0
DA:361,0
DA:365,0
DA:357,0
DA:363,0
DA:365,0
DA:357,0
DA:363,0
DA:365,0
DA:368,0
DA:371,0
DA:372,0
DA:375,0
DA:368,0
DA:375,0
DA:368,0
DA:375,0
DA:378,0
DA:380,0
DA:381,0
DA:383,0
DA:384,0
DA:385,0
DA:386,0
DA:388,0
DA:389,0
DA:391,0
DA:392,0
DA:393,0
DA:396,0
DA:378,0
DA:380,0
DA:381,0
DA:383,0
DA:384,0
DA:385,0
DA:386,0
DA:388,0
DA:389,0
DA:391,0
DA:392,0
DA:393,0
DA:396,0
DA:378,0
DA:380,0
DA:381,0
DA:383,0
DA:384,0
DA:385,0
DA:386,0
DA:388,0
DA:389,0
DA:391,0
DA:392,0
DA:393,0
DA:396,0
DA:403,378
DA:405,378
DA:407,27
DA:408,0
DA:411,27
DA:413,378
DA:414,378
DA:403,20
DA:405,20
DA:407,10
DA:408,0
DA:411,10
DA:413,20
DA:414,20
DA:403,346
DA:405,346
DA:407,4
DA:408,0
DA:411,4
DA:413,346
DA:414,346
DA:462,344
DA:463,344
DA:464,344
DA:462,378
DA:463,378
DA:464,378
DA:546,0
DA:548,0
DA:549,0
DA:550,0
DA:553,0
DA:554,0
DA:556,0
DA:558,0
DA:546,0
DA:548,0
DA:549,0
DA:550,0
DA:553,0
DA:554,0
DA:556,0
DA:558,0
DA:561,4
DA:563,4
DA:564,4
DA:565,8
DA:582,0
DA:584,0
DA:585,0
DA:586,0
DA:582,0
DA:584,0
DA:585,0
DA:586,0
DA:582,0
DA:584,0
DA:585,0
DA:586,0
DA:700,39
DA:702,39
DA:703,39
DA:705,39
DA:709,39
DA:710,39
DA:713,39
DA:715,39
DA:716,39
DA:718,39
DA:719,39
DA:720,39
DA:738,39
DA:739,39
DA:742,0
DA:743,0
DA:744,0
DA:746,39
DA:748,39
DA:749,39
DA:750,4
DA:753,0
DA:755,4
DA:758,39
DA:760,39
DA:761,39
DA:763,39
DA:765,39
DA:766,39
DA:767,39
DA:700,12
DA:702,12
DA:703,12
DA:705,12
DA:709,12
DA:710,12
DA:713,12
DA:715,12
DA:716,12
DA:718,12
DA:719,12
DA:720,12
DA:738,12
DA:739,12
DA:742,0
DA:743,0
DA:744,0
DA:746,12
DA:748,12
DA:749,12
DA:750,1
DA:753,0
DA:755,1
DA:758,12
DA:760,12
DA:761,12
DA:763,12
DA:765,12
DA:766,12
DA:767,12
DA:700,5
DA:702,5
DA:703,5
DA:705,5
DA:709,5
DA:710,5
DA:713,5
DA:715,5
DA:716,5
DA:718,5
DA:719,5
DA:720,5
DA:722,5
DA:724,5
DA:726,23
DA:727,18
DA:729,0
DA:730,0
DA:732,0
DA:734,0
DA:735,0
DA:738,0
DA:739,0
DA:742,0
DA:743,0
DA:744,0
DA:746,5
DA:748,5
DA:749,5
DA:750,0
DA:753,0
DA:755,0
DA:758,5
DA:760,5
DA:761,5
DA:763,5
DA:765,5
DA:766,5
DA:767,5
DA:788,4
DA:790,4
DA:791,4
DA:792,2
DA:793,1
DA:794,1
DA:797,1
DA:803,3
DA:807,4
DA:808,4
DA:788,12
DA:790,12
DA:791,12
DA:792,8
DA:793,8
DA:794,8
DA:799,8
DA:805,4
DA:807,12
DA:808,12
DA:811,10
DA:813,10
DA:814,10
DA:815,4
DA:816,4
DA:819,10
DA:821,10
DA:822,10
DA:811,6
DA:813,6
DA:814,6
DA:815,2
DA:816,2
DA:819,6
DA:821,6
DA:822,6
end_of_record
SF:/home/juan/Documents/Tarea2-Datos2-UnitTesting/Datos-2-Tarea-1-Sockets-Punteros/Server/graph.cpp
FN:12,_ZN5GraphC2E7QVectorIS0_IiEE
FNDA:1,_ZN5GraphC2E7QVectorIS0_IiEE
FN:28,_ZN5Graph11actualEdgesE7QVectorI4EdgeEi
FNDA:4,_ZN5Graph11actualEdgesE7QVectorI4EdgeEi
FN:53,_ZN5Graph8findEdgeE7QVectorIiEi
FNDA:12,_ZN5Graph8findEdgeE7QVectorIiEi
FN:76,_ZN5Graph12findDistanceE7QVectorI4EdgeEii
FNDA:6,_ZN5Graph12findDistanceE7QVectorI4EdgeEii
FN:98,_ZN5Graph12createMatrixE7QVectorI4EdgeEii
FNDA:1,_ZN5Graph12createMatrixE7QVectorI4EdgeEii
FN:165,_ZN5Graph9printPathE7QVectorIS0_IiEEii
FNDA:1,_ZN5Graph9printPathE7QVectorIS0_IiEEii
FN:187,_ZN5Graph13printSolutionE7QVectorIS0_IiEEiii
FNDA:1,_ZN5Graph13printSolutionE7QVectorIS0_IiEEiii
FN:243,_ZN5Graph13floydWarshallE7QVectorIS0_IiEEiiii
FNDA:1,_ZN5Graph13floydWarshallE7QVectorIS0_IiEEiiii
DA:12,1
DA:14,7
DA:16,6
DA:20,1
DA:28,4
DA:30,8
DA:31,4
DA:33,28
DA:35,24
DA:37,6
DA:43,8
DA:53,12
DA:55,22
DA:57,16
DA:59,6
DA:65,6
DA:76,6
DA:78,21
DA:80,21
DA:82,6
DA:88,0
DA:98,1
DA:100,1
DA:101,1
DA:102,1
DA:103,1
DA:104,1
DA:105,1
DA:107,2
DA:108,1
DA:110,2
DA:111,1
DA:113,2
DA:115,5
DA:117,4
DA:119,20
DA:121,16
DA:123,4
DA:124,4
DA:128,12
DA:130,6
DA:134,6
DA:142,4
DA:144,4
DA:146,4
DA:148,4
DA:150,4
DA:154,2
DA:165,1
DA:167,1
DA:169,1
DA:173,0
DA:175,0
DA:187,1
DA:189,2
DA:190,2
DA:192,1
DA:194,5
DA:196,20
DA:198,16
DA:200,12
DA:202,1
DA:203,1
DA:204,1
DA:205,1
DA:206,1
DA:207,1
DA:208,1
DA:210,1
DA:212,1
DA:214,0
DA:215,0
DA:219,1
DA:220,1
DA:230,2
DA:243,1
DA:245,6
DA:246,6
DA:248,5
DA:250,20
DA:252,16
DA:254,16
DA:256,4
DA:258,12
DA:260,6
DA:264,6
DA:272,5
DA:274,20
DA:276,80
DA:278,103
DA:279,39
DA:281,6
DA:282,6
DA:288,16
DA:290,0
DA:298,1
end_of_record
SF:/usr/include/c++/9/initializer_list
FN:71,_ZNKSt16initializer_listI7QVectorIiEE4sizeEv
FNDA:0,_ZNKSt16initializer_listI7QVectorIiEE4sizeEv
FN:71,_ZNKSt16initializer_listIiE4sizeEv
FNDA:0,_ZNKSt16initializer_listIiE4sizeEv
FN:75,_ZNKSt16initializer_listI7QVectorIiEE5beginEv
FNDA:0,_ZNKSt16initializer_listI7QVectorIiEE5beginEv
FN:75,_ZNKSt16initializer_listIiE5beginEv
FNDA:0,_ZNKSt16initializer_listIiE5beginEv
FN:79,_ZNKSt16initializer_listI7QVectorIiEE3endEv
FNDA:0,_ZNKSt16initializer_listI7QVectorIiEE3endEv
FN:79,_ZNKSt16initializer_listIiE3endEv
FNDA:0,_ZNKSt16initializer_listIiE3endEv
DA:71,0
DA:71,0
DA:75,0
DA:75,0
DA:79,0
DA:79,0
end_of_record
SF:/home/juan/Qt/5.15.1/gcc_64/include/QtCore/qrefcount.h
FN:54,_ZN9QtPrivate8RefCount3refEv
FNDA:0,_ZN9QtPrivate8RefCount3refEv
FN:65,_ZN9QtPrivate8RefCount5derefEv
FNDA:0,_ZN9QtPrivate8RefCount5derefEv
FN:86,_ZNK9QtPrivate8RefCount10isSharableEv
FNDA:56,_ZNK9QtPrivate8RefCount10isSharableEv
FN:93,_ZNK9QtPrivate8RefCount8isStaticEv
FNDA:56,_ZNK9QtPrivate8RefCount8isStaticEv
FN:99,_ZNK9QtPrivate8RefCount8isSharedEv
FNDA:1576,_ZNK9QtPrivate8RefCount8isSharedEv
DA:54,0
DA:55,0
DA:57,0
DA:58,0
DA:60,0
DA:61,0
DA:62,0
DA:65,0
DA:66,0
DA:68,0
DA:69,0
DA:71,0
DA:72,0
DA:73,0
DA:86,56
DA:89,56
DA:93,56
DA:96,56
DA:99,1576
DA:101,1576
DA:102,1576
end_of_record
SF:/usr/include/c++/9/new
FN:173,_ZnwmPv
FNDA:0,_ZnwmPv
FN:179,_ZdlPvS_
FNDA:0,_ZdlPvS_
DA:173,0
DA:174,0
DA:179,0
end_of_record
SF:/home/juan/Qt/5.15.1/gcc_64/include/QtCore/qbasicatomic.h
FN:107,_ZNK19QBasicAtomicIntegerIiE11loadRelaxedEv
FNDA:0,_ZNK19QBasicAtomicIntegerIiE11loadRelaxedEv
FN:118,_ZN19QBasicAtomicIntegerIiE3refEv
FNDA:0,_ZN19QBasicAtomicIntegerIiE3refEv
FN:119,_ZN19QBasicAtomicIntegerIiE5derefEv
FNDA:0,_ZN19QBasicAtomicIntegerIiE5derefEv
DA:107,0
DA:118,0
DA:119,0
end_of_record
SF:/usr/include/c++/9/bits/atomic_base.h
FN:99,_ZStanSt12memory_orderSt23__memory_order_modifier
FNDA:0,_ZStanSt12memory_orderSt23__memory_order_modifier
FN:318,_ZNSt13__atomic_baseIiEppEv
FNDA:0,_ZNSt13__atomic_baseIiEppEv
FN:326,_ZNSt13__atomic_baseIiEmmEv
FNDA:0,_ZNSt13__atomic_baseIiEmmEv
DA:99,0
DA:101,0
DA:318,0
DA:319,0
DA:326,0
DA:327,0
DA:415,0
DA:419,0
end_of_record
SF:/home/juan/Qt/5.15.1/gcc_64/include/QtCore/qarraydata.h
FN:57,_ZN10QArrayData4dataEv
FNDA:0,_ZN10QArrayData4dataEv
FN:123,_ZN10QArrayData10sharedNullEv
FNDA:0,_ZN10QArrayData10sharedNullEv
FN:208,_ZN15QTypedArrayDataIiE4dataEv
FNDA:0,_ZN15QTypedArrayDataIiE4dataEv
FN:208,_ZN15QTypedArrayDataI4EdgeE4dataEv
FNDA:0,_ZN15QTypedArrayDataI4EdgeE4dataEv
FN:208,_ZN15QTypedArrayDataItE4dataEv
FNDA:1,_ZN15QTypedArrayDataItE4dataEv
FN:208,_ZN15QTypedArrayDataI7QVectorIiEE4dataEv
FNDA:0,_ZN15QTypedArrayDataI7QVectorIiEE4dataEv
FN:211,_ZN15QTypedArrayDataI7QVectorIiEE5beginEPS1_
FNDA:0,_ZN15QTypedArrayDataI7QVectorIiEE5beginEPS1_
FN:211,_ZN15QTypedArrayDataI4EdgeE5beginEPS0_
FNDA:0,_ZN15QTypedArrayDataI4EdgeE5beginEPS0_
FN:211,_ZN15QTypedArrayDataIiE5beginEPi
FNDA:0,_ZN15QTypedArrayDataIiE5beginEPi
FN:212,_ZN15QTypedArrayDataIiE3endEPi
FNDA:0,_ZN15QTypedArrayDataIiE3endEPi
FN:212,_ZN15QTypedArrayDataI7QVectorIiEE3endEPS1_
FNDA:0,_ZN15QTypedArrayDataI7QVectorIiEE3endEPS1_
FN:212,_ZN15QTypedArrayDataI4EdgeE3endEPS0_
FNDA:0,_ZN15QTypedArrayDataI4EdgeE3endEPS0_
FN:220,_ZN15QTypedArrayDataIiE8allocateEm6QFlagsIN10QArrayData16AllocationOptionEE
FNDA:0,_ZN15QTypedArrayDataIiE8allocateEm6QFlagsIN10QArrayData16AllocationOptionEE
FN:220,_ZN15QTypedArrayDataI4EdgeE8allocateEm6QFlagsIN10QArrayData16AllocationOptionEE
FNDA:0,_ZN15QTypedArrayDataI4EdgeE8allocateEm6QFlagsIN10QArrayData16AllocationOptionEE
FN:220,_ZN15QTypedArrayDataI7QVectorIiEE8allocateEm6QFlagsIN10QArrayData16AllocationOptionEE
FNDA:0,_ZN15QTypedArrayDataI7QVectorIiEE8allocateEm6QFlagsIN10QArrayData16AllocationOptionEE
FN:236,_ZN15QTypedArrayDataI4EdgeE10deallocateEP10QArrayData
FNDA:0,_ZN15QTypedArrayDataI4EdgeE10deallocateEP10QArrayData
FN:236,_ZN15QTypedArrayDataItE10deallocateEP10QArrayData
FNDA:0,_ZN15QTypedArrayDataItE10deallocateEP10QArrayData
FN:236,_ZN15QTypedArrayDataIiE10deallocateEP10QArrayData
FNDA:0,_ZN15QTypedArrayDataIiE10deallocateEP10QArrayData
FN:236,_ZN15QTypedArrayDataI7QVectorIiEE10deallocateEP10QArrayData
FNDA:0,_ZN15QTypedArrayDataI7QVectorIiEE10deallocateEP10QArrayData
FN:257,_ZN15QTypedArrayDataI7QVectorIiEE10sharedNullEv
FNDA:0,_ZN15QTypedArrayDataI7QVectorIiEE10sharedNullEv
FN:257,_ZN15QTypedArrayDataIiE10sharedNullEv
FNDA:0,_ZN15QTypedArrayDataIiE10sharedNullEv
FN:257,_ZN15QTypedArrayDataI4EdgeE10sharedNullEv
FNDA:17,_ZN15QTypedArrayDataI4EdgeE10sharedNullEv
FN:270,_ZN15QTypedArrayDataIiE15unsharableEmptyEv
FNDA:39,_ZN15QTypedArrayDataIiE15unsharableEmptyEv
FN:270,_ZN15QTypedArrayDataI7QVectorIiEE15unsharableEmptyEv
FNDA:5,_ZN15QTypedArrayDataI7QVectorIiEE15unsharableEmptyEv
FN:270,_ZN15QTypedArrayDataI4EdgeE15unsharableEmptyEv
FNDA:12,_ZN15QTypedArrayDataI4EdgeE15unsharableEmptyEv
DA:57,0
DA:59,0
DA:61,0
DA:123,0
DA:208,0
DA:208,0
DA:208,0
DA:208,1
DA:211,0
DA:211,0
DA:211,0
DA:212,0
DA:212,0
DA:212,0
DA:220,0
DA:224,0
DA:225,0
DA:220,0
DA:224,0
DA:225,0
DA:220,0
DA:224,0
DA:225,0
DA:236,0
DA:239,0
DA:240,0
DA:236,0
DA:239,0
DA:240,0
DA:236,0
DA:239,0
DA:240,0
DA:236,0
DA:239,0
DA:240,0
DA:257,0
DA:260,0
DA:257,0
DA:260,0
DA:257,17
DA:260,17
DA:270,39
DA:273,39
DA:270,12
DA:273,12
DA:270,5
DA:273,5
end_of_record
SF:/home/juan/Qt/5.15.1/gcc_64/include/QtCore/qflags.h
FN:121,_ZN6QFlagsIN10QArrayData16AllocationOptionEEC2ES1_
FNDA:0,_ZN6QFlagsIN10QArrayData16AllocationOptionEEC2ES1_
FN:151,_ZNK6QFlagsIN10QArrayData16AllocationOptionEE8testFlagES1_
FNDA:0,_ZNK6QFlagsIN10QArrayData16AllocationOptionEE8testFlagES1_
DA:121,0
DA:151,0
end_of_record
SF:/home/juan/Qt/5.15.1/gcc_64/include/QtCore/qstring.h
FN:274,_ZN7QStringaSEOS_
FNDA:1,_ZN7QStringaSEOS_
FN:277,_ZNK7QString4sizeEv
FNDA:1,_ZNK7QString4sizeEv
FN:699,_ZN7QString8fromUtf8EPKci
FNDA:0,_ZN7QString8fromUtf8EPKci
FN:830,_ZN7QStringC2EPKc
FNDA:0,_ZN7QStringC2EPKc
FN:848,_ZN7QString6appendEPKc
FNDA:5,_ZN7QString6appendEPKc
FN:1080,_ZNK7QString9constDataEv
FNDA:1,_ZNK7QString9constDataEv
FN:1088,_ZN7QStringC2ERKS_
FNDA:1,_ZN7QStringC2ERKS_
FN:1302,_ZN7QStringD2Ev
FNDA:0,_ZN7QStringD2Ev
FN:1410,_ZNK7QStringneEPKc
FNDA:1,_ZNK7QStringneEPKc
DA:274,1
DA:275,1
DA:277,1
DA:699,0
DA:701,0
DA:830,0
DA:831,0
DA:832,0
DA:848,5
DA:849,5
DA:1080,1
DA:1081,1
DA:1088,1
DA:1089,1
DA:1302,0
DA:1410,1
DA:1411,1
end_of_record
SF:/home/juan/Qt/5.15.1/gcc_64/include/QtCore/qglobal.h
FN:965,_Z5qSwapIP15QTypedArrayDataIiEEvRT_S4_
FNDA:8,_Z5qSwapIP15QTypedArrayDataIiEEvRT_S4_
FN:965,_Z5qSwapIP15QTypedArrayDataItEEvRT_S4_
FNDA:1,_Z5qSwapIP15QTypedArrayDataItEEvRT_S4_
DA:965,8
DA:969,8
DA:970,8
DA:965,1
DA:969,1
DA:970,1
end_of_record
SF:/usr/include/c++/9/bits/move.h
FN:99,_ZSt4moveIRP15QTypedArrayDataIiEEONSt16remove_referenceIT_E4typeEOS5_
FNDA:24,_ZSt4moveIRP15QTypedArrayDataIiEEONSt16remove_referenceIT_E4typeEOS5_
FN:99,_ZSt4moveIRiEONSt16remove_referenceIT_E4typeEOS2_
FNDA:28,_ZSt4moveIRiEONSt16remove_referenceIT_E4typeEOS2_
FN:99,_ZSt4moveIR7QVectorIiEEONSt16remove_referenceIT_E4typeEOS4_
FNDA:5,_ZSt4moveIR7QVectorIiEEONSt16remove_referenceIT_E4typeEOS4_
FN:99,_ZSt4moveIR4EdgeEONSt16remove_referenceIT_E4typeEOS3_
FNDA:12,_ZSt4moveIR4EdgeEONSt16remove_referenceIT_E4typeEOS3_
FN:99,_ZSt4moveIRP15QTypedArrayDataItEEONSt16remove_referenceIT_E4typeEOS5_
FNDA:3,_ZSt4moveIRP15QTypedArrayDataItEEONSt16remove_referenceIT_E4typeEOS5_
FN:182,_ZSt4swapIP15QTypedArrayDataIiEENSt9enable_ifIXsrSt6__and_IJSt6__not_ISt15__is_tuple_likeIT_EESt21is_move_constructibleIS7_ESt18is_move_assignableIS7_EEE5valueEvE4typeERS7_SH_
FNDA:8,_ZSt4swapIP15QTypedArrayDataIiEENSt9enable_ifIXsrSt6__and_IJSt6__not_ISt15__is_tuple_likeIT_EESt21is_move_constructibleIS7_ESt18is_move_assignableIS7_EEE5valueEvE4typeERS7_SH_
FN:182,_ZSt4swapIP15QTypedArrayDataItEENSt9enable_ifIXsrSt6__and_IJSt6__not_ISt15__is_tuple_likeIT_EESt21is_move_constructibleIS7_ESt18is_move_assignableIS7_EEE5valueEvE4typeERS7_SH_
FNDA:1,_ZSt4swapIP15QTypedArrayDataItEENSt9enable_ifIXsrSt6__and_IJSt6__not_ISt15__is_tuple_likeIT_EESt21is_move_constructibleIS7_ESt18is_move_assignableIS7_EEE5valueEvE4typeERS7_SH_
DA:99,24
DA:100,24
DA:99,28
DA:100,28
DA:99,5
DA:100,5
DA:99,12
DA:100,12
DA:99,3
DA:100,3
DA:182,8
DA:193,8
DA:194,8
DA:195,8
DA:196,8
DA:182,1
DA:193,1
DA:194,1
DA:195,1
DA:196,1
end_of_record
SF:/home/juan/Qt/5.15.1/gcc_64/include/QtCore/qatomic_cxx11.h
FN:237,_ZN10QAtomicOpsIiE11loadRelaxedIiEET_RKSt6atomicIS2_E
FNDA:0,_ZN10QAtomicOpsIiE11loadRelaxedIiEET_RKSt6atomicIS2_E
FN:281,_ZN10QAtomicOpsIiE3refIiEEbRSt6atomicIT_E
FNDA:0,_ZN10QAtomicOpsIiE3refIiEEbRSt6atomicIT_E
FN:287,_ZN10QAtomicOpsIiE5derefIiEEbRSt6atomicIT_E
FNDA:0,_ZN10QAtomicOpsIiE5derefIiEEbRSt6atomicIT_E
DA:237,0
DA:239,0
DA:281,0
DA:283,0
DA:287,0
DA:289,0
end_of_record
TN:
SF:/usr/include/c++/9/bits/move.h
FN:99,_ZSt4moveIRZN11serverClassC4EP7QObjectEUlvE_EONSt16remove_referenceIT_E4typeEOS6_
FNDA:12,_ZSt4moveIRZN11serverClassC4EP7QObjectEUlvE_EONSt16remove_referenceIT_E4typeEOS6_
DA:99,12
DA:100,12
end_of_record
SF:/home/juan/Documents/Tarea2-Datos2-UnitTesting/Datos-2-Tarea-1-Sockets-Punteros/Server/serverclass.cpp
FN:9,_ZN11serverClassC2EP7QObject
FNDA:4,_ZN11serverClassC2EP7QObject
FN:13,_ZZN11serverClassC4EP7QObjectENKUlvE_clEv
FNDA:1,_ZZN11serverClassC4EP7QObjectENKUlvE_clEv
FN:25,_ZN11serverClass11sendMessageERK7QString
FNDA:1,_ZN11serverClass11sendMessageERK7QString
DA:9,4
DA:11,4
DA:13,4
DA:15,1
DA:17,1
DA:19,4
DA:25,1
DA:27,1
DA:29,2
DA:30,1
DA:31,1
DA:35,1
end_of_record
SF:/home/juan/Qt/5.15.1/gcc_64/include/QtCore/qobjectdefs_impl.h
FN:88,_ZN9QtPrivate16ApplyReturnValueIvEC2EPv
FNDA:1,_ZN9QtPrivate16ApplyReturnValueIvEC2EPv
FN:145,_ZN9QtPrivate11FunctorCallINS_11IndexesListIJEEENS_4ListIJEEEvZN11serverClassC4EP7QObjectEUlvE_E4callERS8_PPv
FNDA:1,_ZN9QtPrivate11FunctorCallINS_11IndexesListIJEEENS_4ListIJEEEvZN11serverClassC4EP7QObjectEUlvE_E4callERS8_PPv
FN:255,_ZN9QtPrivate7FunctorIZN11serverClassC4EP7QObjectEUlvE_Li0EE4callINS_4ListIJEEEvEEvRS4_PvPSA_
FNDA:1,_ZN9QtPrivate7FunctorIZN11serverClassC4EP7QObjectEUlvE_Li0EE4callINS_4ListIJEEEvEEvRS4_PvPSA_
FN:391,_ZN9QtPrivate15QSlotObjectBaseC2EPFviPS0_P7QObjectPPvPbE
FNDA:4,_ZN9QtPrivate15QSlotObjectBaseC2EPFviPS0_P7QObjectPPvPbE
FN:400,_ZN9QtPrivate15QSlotObjectBaseD2Ev
FNDA:4,_ZN9QtPrivate15QSlotObjectBaseD2Ev
FN:436,_ZN9QtPrivate18QFunctorSlotObjectIZN11serverClassC4EP7QObjectEUlvE_Li0ENS_4ListIJEEEvE4implEiPNS_15QSlotObjectBaseES3_PPvPb
FNDA:5,_ZN9QtPrivate18QFunctorSlotObjectIZN11serverClassC4EP7QObjectEUlvE_Li0ENS_4ListIJEEEvE4implEiPNS_15QSlotObjectBaseES3_PPvPb
FN:451,_ZN9QtPrivate18QFunctorSlotObjectIZN11serverClassC4EP7QObjectEUlvE_Li0ENS_4ListIJEEEvEC2ES4_
FNDA:4,_ZN9QtPrivate18QFunctorSlotObjectIZN11serverClassC4EP7QObjectEUlvE_Li0ENS_4ListIJEEEvEC2ES4_
DA:88,1
DA:145,1
DA:146,1
DA:147,1
DA:255,1
DA:256,1
DA:257,1
DA:391,4
DA:400,4
DA:436,5
DA:438,5
DA:439,4
DA:440,4
DA:441,4
DA:442,1
DA:443,1
DA:444,1
DA:445,5
DA:449,5
DA:451,4
end_of_record
SF:/home/juan/Qt/5.15.1/gcc_64/include/QtCore/qbasicatomic.h
FN:225,_ZN19QBasicAtomicIntegerIiEC2Ei
FNDA:4,_ZN19QBasicAtomicIntegerIiEC2Ei
DA:225,4
end_of_record
SF:/usr/include/c++/9/atomic
FN:759,_ZNSt6atomicIiEC2Ei
FNDA:4,_ZNSt6atomicIiEC2Ei
DA:759,4
end_of_record
SF:/home/juan/Qt/5.15.1/gcc_64/include/QtCore/qatomic.h
FN:64,_ZN14QAtomicIntegerIiEC2Ei
FNDA:4,_ZN14QAtomicIntegerIiEC2Ei
FN:168,_ZN10QAtomicIntC2Ei
FNDA:4,_ZN10QAtomicIntC2Ei
DA:64,4
DA:168,4
end_of_record
SF:/usr/include/c++/9/bits/atomic_base.h
FN:279,_ZNSt13__atomic_baseIiEC2Ei
FNDA:4,_ZNSt13__atomic_baseIiEC2Ei
DA:279,4
end_of_record
SF:/home/juan/Qt/5.15.1/gcc_64/include/QtCore/qobject.h
FN:314,_ZN7QObject7connectIM10QTcpServerFvvEZN11serverClassC4EPS_EUlvE_EENSt9enable_ifIXeqsrN9QtPrivate15FunctionPointerIT0_EE13ArgumentCountLin1EEN11QMetaObject10ConnectionEE4typeEPKNS9_IT_E6ObjectESG_SA_
FNDA:4,_ZN7QObject7connectIM10QTcpServerFvvEZN11serverClassC4EPS_EUlvE_EENSt9enable_ifIXeqsrN9QtPrivate15FunctionPointerIT0_EE13ArgumentCountLin1EEN11QMetaObject10ConnectionEE4typeEPKNS9_IT_E6ObjectESG_SA_
FN:322,_ZN7QObject7connectIM10QTcpServerFvvEZN11serverClassC4EPS_EUlvE_EENSt9enable_ifIXeqsrN9QtPrivate15FunctionPointerIT0_EE13ArgumentCountLin1EEN11QMetaObject10ConnectionEE4typeEPKNS9_IT_E6ObjectESG_PKS_SA_N2Qt14ConnectionTypeE
FNDA:4,_ZN7QObject7connectIM10QTcpServerFvvEZN11serverClassC4EPS_EUlvE_EENSt9enable_ifIXeqsrN9QtPrivate15FunctionPointerIT0_EE13ArgumentCountLin1EEN11QMetaObject10ConnectionEE4typeEPKNS9_IT_E6ObjectESG_PKS_SA_N2Qt14ConnectionTypeE
DA:314,4
DA:316,4
DA:322,4
DA:326,4
DA:330,4
DA:339,4
DA:340,4
DA:341,0
DA:344,4
DA:346,4
DA:347,8
end_of_record
SF:/home/juan/Qt/5.15.1/gcc_64/include/QtCore/qobject_impl.h
FN:73,_ZN9QtPrivate15ConnectionTypesINS_4ListIJEEELb1EE5typesEv
FNDA:0,_ZN9QtPrivate15ConnectionTypesINS_4ListIJEEELb1EE5typesEv
DA:73,0
end_of_record
TN:
SF:/home/juan/Documents/Tarea2-Datos2-UnitTesting/Datos-2-Tarea-1-Sockets-Punteros/Server/main.cpp
FN:10,main
FNDA:4,main
DA:10,4
DA:12,8
DA:13,8
DA:14,4
DA:16,4
end_of_record
TN:
SF:/home/juan/Qt/5.15.1/gcc_64/include/QtCore/qsize.h
FN:125,_ZN5QSizeC2Eii
FNDA:8,_ZN5QSizeC2Eii
DA:125,8
end_of_record
SF:/home/juan/Qt/5.15.1/gcc_64/include/QtCore/qrect.h
FN:184,_ZN5QRectC2Eiiii
FNDA:8,_ZN5QRectC2Eiiii
FN:265,_ZNK5QRect5widthEv
FNDA:4,_ZNK5QRect5widthEv
FN:268,_ZNK5QRect6heightEv
FNDA:4,_ZNK5QRect6heightEv
DA:184,8
DA:185,8
DA:265,4
DA:266,4
DA:268,4
DA:269,4
end_of_record
SF:/usr/include/c++/9/bits/atomic_base.h
FN:99,_ZStanSt12memory_orderSt23__memory_order_modifier
FNDA:2093,_ZStanSt12memory_orderSt23__memory_order_modifier
FN:318,_ZNSt13__atomic_baseIiEppEv
FNDA:87,_ZNSt13__atomic_baseIiEppEv
FN:326,_ZNSt13__atomic_baseIiEmmEv
FNDA:293,_ZNSt13__atomic_baseIiEmmEv
DA:99,2093
DA:101,2093
DA:318,87
DA:319,87
DA:326,293
DA:327,293
DA:415,2093
DA:419,2093
end_of_record
SF:/home/juan/Qt/5.15.1/gcc_64/include/QtCore/qarraydata.h
FN:57,_ZN10QArrayData4dataEv
FNDA:1217,_ZN10QArrayData4dataEv
FN:123,_ZN10QArrayData10sharedNullEv
FNDA:77,_ZN10QArrayData10sharedNullEv
FN:208,_ZN15QTypedArrayDataI7QVectorIiEE4dataEv
FNDA:398,_ZN15QTypedArrayDataI7QVectorIiEE4dataEv
FN:208,_ZN15QTypedArrayDataIiE4dataEv
FNDA:722,_ZN15QTypedArrayDataIiE4dataEv
FN:208,_ZN15QTypedArrayDataI4EdgeE4dataEv
FNDA:96,_ZN15QTypedArrayDataI4EdgeE4dataEv
FN:211,_ZN15QTypedArrayDataIiE5beginEPi
FNDA:555,_ZN15QTypedArrayDataIiE5beginEPi
FN:211,_ZN15QTypedArrayDataI7QVectorIiEE5beginEPS1_
FNDA:372,_ZN15QTypedArrayDataI7QVectorIiEE5beginEPS1_
FN:211,_ZN15QTypedArrayDataI4EdgeE5beginEPS0_
FNDA:45,_ZN15QTypedArrayDataI4EdgeE5beginEPS0_
FN:212,_ZN15QTypedArrayDataI7QVectorIiEE3endEPS1_
FNDA:21,_ZN15QTypedArrayDataI7QVectorIiEE3endEPS1_
FN:212,_ZN15QTypedArrayDataI4EdgeE3endEPS0_
FNDA:39,_ZN15QTypedArrayDataI4EdgeE3endEPS0_
FN:212,_ZN15QTypedArrayDataIiE3endEPi
FNDA:128,_ZN15QTypedArrayDataIiE3endEPi
FN:220,_ZN15QTypedArrayDataI4EdgeE8allocateEm6QFlagsIN10QArrayData16AllocationOptionEE
FNDA:24,_ZN15QTypedArrayDataI4EdgeE8allocateEm6QFlagsIN10QArrayData16AllocationOptionEE
FN:220,_ZN15QTypedArrayDataI7QVectorIiEE8allocateEm6QFlagsIN10QArrayData16AllocationOptionEE
FNDA:16,_ZN15QTypedArrayDataI7QVectorIiEE8allocateEm6QFlagsIN10QArrayData16AllocationOptionEE
FN:220,_ZN15QTypedArrayDataIiE8allocateEm6QFlagsIN10QArrayData16AllocationOptionEE
FNDA:110,_ZN15QTypedArrayDataIiE8allocateEm6QFlagsIN10QArrayData16AllocationOptionEE
FN:236,_ZN15QTypedArrayDataIiE10deallocateEP10QArrayData
FNDA:71,_ZN15QTypedArrayDataIiE10deallocateEP10QArrayData
FN:236,_ZN15QTypedArrayDataItE10deallocateEP10QArrayData
FNDA:18,_ZN15QTypedArrayDataItE10deallocateEP10QArrayData
FN:236,_ZN15QTypedArrayDataI7QVectorIiEE10deallocateEP10QArrayData
FNDA:11,_ZN15QTypedArrayDataI7QVectorIiEE10deallocateEP10QArrayData
FN:236,_ZN15QTypedArrayDataI4EdgeE10deallocateEP10QArrayData
FNDA:12,_ZN15QTypedArrayDataI4EdgeE10deallocateEP10QArrayData
FN:257,_ZN15QTypedArrayDataI7QVectorIiEE10sharedNullEv
FNDA:6,_ZN15QTypedArrayDataI7QVectorIiEE10sharedNullEv
FN:257,_ZN15QTypedArrayDataIiE10sharedNullEv
FNDA:54,_ZN15QTypedArrayDataIiE10sharedNullEv
DA:57,1217
DA:59,1217
DA:61,1217
DA:123,77
DA:208,96
DA:208,398
DA:208,722
DA:211,45
DA:211,372
DA:211,555
DA:212,128
DA:212,39
DA:212,21
DA:220,24
DA:224,24
DA:225,24
DA:220,16
DA:224,16
DA:225,16
DA:220,110
DA:224,110
DA:225,110
DA:236,12
DA:239,12
DA:240,12
DA:236,11
DA:239,11
DA:240,11
DA:236,71
DA:239,71
DA:240,71
DA:236,18
DA:239,18
DA:240,18
DA:257,6
DA:260,6
DA:257,54
DA:260,54
end_of_record
SF:/home/juan/Qt/5.15.1/gcc_64/include/QtCore/qbasicatomic.h
FN:107,_ZNK19QBasicAtomicIntegerIiE11loadRelaxedEv
FNDA:2093,_ZNK19QBasicAtomicIntegerIiE11loadRelaxedEv
FN:118,_ZN19QBasicAtomicIntegerIiE3refEv
FNDA:87,_ZN19QBasicAtomicIntegerIiE3refEv
FN:119,_ZN19QBasicAtomicIntegerIiE5derefEv
FNDA:293,_ZN19QBasicAtomicIntegerIiE5derefEv
DA:107,2093
DA:118,87
DA:119,293
end_of_record
SF:/home/juan/Qt/5.15.1/gcc_64/include/QtCore/qatomic_cxx11.h
FN:237,_ZN10QAtomicOpsIiE11loadRelaxedIiEET_RKSt6atomicIS2_E
FNDA:2093,_ZN10QAtomicOpsIiE11loadRelaxedIiEET_RKSt6atomicIS2_E
FN:281,_ZN10QAtomicOpsIiE3refIiEEbRSt6atomicIT_E
FNDA:87,_ZN10QAtomicOpsIiE3refIiEEbRSt6atomicIT_E
FN:287,_ZN10QAtomicOpsIiE5derefIiEEbRSt6atomicIT_E
FNDA:293,_ZN10QAtomicOpsIiE5derefIiEEbRSt6atomicIT_E
DA:237,2093
DA:239,4186
DA:281,87
DA:283,87
DA:287,293
DA:289,293
end_of_record
SF:/home/juan/Documents/Tarea2-Datos2-UnitTesting/Datos-2-Tarea-1-Sockets-Punteros/Server/graph.h
end_of_record
SF:/home/juan/Qt/5.15.1/gcc_64/include/QtWidgets/qlistwidget.h
FN:227,_ZN11QListWidget7addItemERK7QString
FNDA:2,_ZN11QListWidget7addItemERK7QString
DA:227,2
end_of_record
SF:/home/juan/Qt/5.15.1/gcc_64/include/QtCore/qstring.h
FN:699,_ZN7QString8fromUtf8EPKci
FNDA:61,_ZN7QString8fromUtf8EPKci
FN:830,_ZN7QStringC2EPKc
FNDA:9,_ZN7QStringC2EPKc
FN:1072,_ZNK7QString7isEmptyEv
FNDA:4,_ZNK7QString7isEmptyEv
FN:1302,_ZN7QStringD2Ev
FNDA:117,_ZN7QStringD2Ev
DA:699,61
DA:701,61
DA:830,9
DA:831,9
DA:832,9
DA:1072,4
DA:1073,4
DA:1302,117
end_of_record
SF:/home/juan/Qt/5.15.1/gcc_64/include/QtCore/qflags.h
FN:120,_ZN6QFlagsIN2Qt10WindowTypeEEC2Ev
FNDA:20,_ZN6QFlagsIN2Qt10WindowTypeEEC2Ev
FN:121,_ZN6QFlagsIN11QMessageBox14StandardButtonEEC2ES1_
FNDA:1,_ZN6QFlagsIN11QMessageBox14StandardButtonEEC2ES1_
FN:121,_ZN6QFlagsIN10QArrayData16AllocationOptionEEC2ES1_
FNDA:150,_ZN6QFlagsIN10QArrayData16AllocationOptionEEC2ES1_
FN:121,_ZN6QFlagsIN2Qt19ImageConversionFlagEEC2ES1_
FNDA:4,_ZN6QFlagsIN2Qt19ImageConversionFlagEEC2ES1_
DA:120,20
DA:121,1
DA:121,150
DA:121,4
end_of_record
SF:/usr/include/c++/9/iostream
end_of_record
SF:/home/juan/Qt/5.15.1/gcc_64/include/QtGui/qpixmap.h
FN:125,_ZNK7QPixmap6scaledEiiN2Qt15AspectRatioModeENS0_18TransformationModeE
FNDA:4,_ZNK7QPixmap6scaledEiiN2Qt15AspectRatioModeENS0_18TransformationModeE
DA:125,4
DA:127,8
end_of_record
SF:/home/juan/Qt/5.15.1/gcc_64/include/QtWidgets/qwidget.h
FN:853,_ZN7QWidget6resizeEii
FNDA:4,_ZN7QWidget6resizeEii
FN:868,_ZNK7QWidget5widthEv
FNDA:4,_ZNK7QWidget5widthEv
FN:871,_ZNK7QWidget6heightEv
FNDA:4,_ZNK7QWidget6heightEv
DA:853,4
DA:854,4
DA:868,4
DA:869,4
DA:871,4
DA:872,4
end_of_record
SF:/home/juan/Documents/Tarea2-Datos2-UnitTesting/Datos-2-Tarea-1-Sockets-Punteros/Server/widget.cpp
FN:34,_ZN6WidgetC2EP7QWidget
FNDA:4,_ZN6WidgetC2EP7QWidget
FN:51,_ZN6WidgetD0Ev
FNDA:0,_ZN6WidgetD0Ev
FN:51,_ZN6WidgetD2Ev
FNDA:4,_ZN6WidgetD2Ev
FN:60,_ZN6Widget26on_startPushButton_clickedEv
FNDA:1,_ZN6Widget26on_startPushButton_clickedEv
FN:77,_ZN6Widget31on_sendResultPushButton_clickedEv
FNDA:1,_ZN6Widget31on_sendResultPushButton_clickedEv
FN:92,_ZN6Widget30on_readStartPushButton_clickedEv
FNDA:1,_ZN6Widget30on_readStartPushButton_clickedEv
FN:108,_ZN6Widget28on_readEndPushButton_clickedEv
FNDA:1,_ZN6Widget28on_readEndPushButton_clickedEv
FN:124,_ZN6Widget26on_closePushButton_clickedEv
FNDA:1,_ZN6Widget26on_closePushButton_clickedEv
DA:34,4
DA:36,4
DA:37,4
DA:39,4
DA:41,4
DA:42,4
DA:44,4
DA:46,4
DA:51,0
DA:55,0
DA:51,4
DA:53,4
DA:55,4
DA:60,1
DA:62,1
DA:64,0
DA:68,1
DA:72,1
DA:77,1
DA:79,2
DA:81,2
DA:83,2
DA:85,1
DA:87,1
DA:92,1
DA:94,2
DA:96,2
DA:98,1
DA:100,1
DA:101,1
DA:103,1
DA:108,1
DA:110,2
DA:112,2
DA:114,1
DA:116,1
DA:117,1
DA:119,1
DA:124,1
DA:126,1
DA:128,1
end_of_record
SF:/home/juan/Qt/5.15.1/gcc_64/include/QtCore/qvector.h
FN:73,_ZN7QVectorIiED2Ev
FNDA:117,_ZN7QVectorIiED2Ev
FN:73,_ZN7QVectorIS_IiEED2Ev
FNDA:12,_ZN7QVectorIS_IiEED2Ev
FN:73,_ZN7QVectorI4EdgeED2Ev
FNDA:16,_ZN7QVectorI4EdgeED2Ev
FN:88,_ZNK7QVectorIS_IiEE4sizeEv
FNDA:4,_ZNK7QVectorIS_IiEE4sizeEv
FN:357,_ZN7QVectorI4EdgeE13copyConstructEPKS0_S3_PS0_
FNDA:0,_ZN7QVectorI4EdgeE13copyConstructEPKS0_S3_PS0_
FN:357,_ZN7QVectorIiE13copyConstructEPKiS2_Pi
FNDA:32,_ZN7QVectorIiE13copyConstructEPKiS2_Pi
FN:357,_ZN7QVectorIS_IiEE13copyConstructEPKS0_S3_PS0_
FNDA:6,_ZN7QVectorIS_IiEE13copyConstructEPKS0_S3_PS0_
FN:368,_ZN7QVectorIS_IiEE8destructEPS0_S2_
FNDA:11,_ZN7QVectorIS_IiEE8destructEPS0_S2_
FN:368,_ZN7QVectorIiE8destructEPiS1_
FNDA:67,_ZN7QVectorIiE8destructEPiS1_
FN:368,_ZN7QVectorI4EdgeE8destructEPS0_S2_
FNDA:11,_ZN7QVectorI4EdgeE8destructEPS0_S2_
FN:378,_ZN7QVectorI4EdgeEC2ERKS1_
FNDA:11,_ZN7QVectorI4EdgeEC2ERKS1_
FN:378,_ZN7QVectorIS_IiEEC2ERKS1_
FNDA:5,_ZN7QVectorIS_IiEEC2ERKS1_
FN:378,_ZN7QVectorIiEC2ERKS0_
FNDA:70,_ZN7QVectorIiEC2ERKS0_
FN:546,_ZN7QVectorIS_IiEEC2ESt16initializer_listIS0_E
FNDA:6,_ZN7QVectorIS_IiEEC2ESt16initializer_listIS0_E
FN:546,_ZN7QVectorIiEC2ESt16initializer_listIiE
FNDA:36,_ZN7QVectorIiEC2ESt16initializer_listIiE
FN:582,_ZN7QVectorIS_IiEE8freeDataEP15QTypedArrayDataIS0_E
FNDA:11,_ZN7QVectorIS_IiEE8freeDataEP15QTypedArrayDataIS0_E
FN:582,_ZN7QVectorIiE8freeDataEP15QTypedArrayDataIiE
FNDA:67,_ZN7QVectorIiE8freeDataEP15QTypedArrayDataIiE
FN:582,_ZN7QVectorI4EdgeE8freeDataEP15QTypedArrayDataIS0_E
FNDA:11,_ZN7QVectorI4EdgeE8freeDataEP15QTypedArrayDataIS0_E
DA:73,16
DA:73,12
DA:73,117
DA:88,4
DA:357,0
DA:363,0
DA:365,0
DA:357,6
DA:360,38
DA:361,32
DA:365,6
DA:357,32
DA:363,32
DA:365,32
DA:368,11
DA:375,11
DA:368,65
DA:371,65
DA:372,54
DA:375,11
DA:368,67
DA:375,67
DA:378,70
DA:380,70
DA:381,70
DA:383,0
DA:384,0
DA:385,0
DA:386,0
DA:388,0
DA:389,0
DA:391,0
DA:392,0
DA:393,0
DA:396,70
DA:378,11
DA:380,11
DA:381,11
DA:383,0
DA:384,0
DA:385,0
DA:386,0
DA:388,0
DA:389,0
DA:391,0
DA:392,0
DA:393,0
DA:396,11
DA:378,5
DA:380,5
DA:381,5
DA:383,0
DA:384,0
DA:385,0
DA:386,0
DA:388,0
DA:389,0
DA:391,0
DA:392,0
DA:393,0
DA:396,5
DA:546,6
DA:548,6
DA:549,6
DA:550,6
DA:553,6
DA:554,6
DA:556,0
DA:558,6
DA:546,36
DA:548,36
DA:549,32
DA:550,32
DA:553,32
DA:554,32
DA:556,4
DA:558,36
DA:582,11
DA:584,11
DA:585,11
DA:586,11
DA:582,11
DA:584,11
DA:585,11
DA:586,11
DA:582,67
DA:584,67
DA:585,67
DA:586,67
end_of_record
SF:/home/juan/Documents/Tarea2-Datos2-UnitTesting/Datos-2-Tarea-1-Sockets-Punteros/build-Server-Desktop_Qt_5_15_1_GCC_64bit-Debug/ui_widget.h
FN:40,_ZN9Ui_Widget7setupUiEP7QWidget
FNDA:4,_ZN9Ui_Widget7setupUiEP7QWidget
FN:120,_ZN9Ui_Widget13retranslateUiEP7QWidget
FNDA:4,_ZN9Ui_Widget13retranslateUiEP7QWidget
DA:40,4
DA:42,4
DA:43,4
DA:44,4
DA:45,4
DA:46,4
DA:47,4
DA:48,4
DA:49,4
DA:50,4
DA:51,4
DA:52,4
DA:53,4
DA:54,4
DA:55,4
DA:56,4
DA:57,4
DA:58,8
DA:59,4
DA:60,4
DA:61,4
DA:62,4
DA:63,4
DA:65,4
DA:67,4
DA:68,4
DA:70,4
DA:72,4
DA:73,4
DA:74,4
DA:75,4
DA:77,4
DA:79,4
DA:80,4
DA:82,4
DA:84,4
DA:85,4
DA:87,4
DA:89,4
DA:90,4
DA:92,4
DA:94,4
DA:95,4
DA:97,4
DA:99,4
DA:100,4
DA:102,4
DA:104,4
DA:105,4
DA:107,4
DA:109,4
DA:110,4
DA:112,4
DA:115,4
DA:117,4
DA:118,4
DA:120,4
DA:122,4
DA:123,4
DA:124,4
DA:125,4
DA:126,4
DA:127,4
DA:128,4
DA:129,4
DA:130,4
DA:131,4
end_of_record
SF:/usr/include/c++/9/new
FN:173,_ZnwmPv
FNDA:70,_ZnwmPv
FN:179,_ZdlPvS_
FNDA:0,_ZdlPvS_
DA:173,70
DA:174,70
DA:179,0
end_of_record
SF:/home/juan/Qt/5.15.1/gcc_64/include/QtCore/qrefcount.h
FN:54,_ZN9QtPrivate8RefCount3refEv
FNDA:87,_ZN9QtPrivate8RefCount3refEv
FN:65,_ZN9QtPrivate8RefCount5derefEv
FNDA:318,_ZN9QtPrivate8RefCount5derefEv
DA:54,87
DA:55,87
DA:57,87
DA:58,0
DA:60,87
DA:61,87
DA:62,87
DA:65,318
DA:66,318
DA:68,318
DA:69,0
DA:71,318
DA:72,25
DA:73,293
end_of_record
SF:/usr/include/c++/9/initializer_list
FN:71,_ZNKSt16initializer_listI7QVectorIiEE4sizeEv
FNDA:24,_ZNKSt16initializer_listI7QVectorIiEE4sizeEv
FN:71,_ZNKSt16initializer_listIiE4sizeEv
FNDA:132,_ZNKSt16initializer_listIiE4sizeEv
FN:75,_ZNKSt16initializer_listI7QVectorIiEE5beginEv
FNDA:12,_ZNKSt16initializer_listI7QVectorIiEE5beginEv
FN:75,_ZNKSt16initializer_listIiE5beginEv
FNDA:64,_ZNKSt16initializer_listIiE5beginEv
FN:79,_ZNKSt16initializer_listI7QVectorIiEE3endEv
FNDA:6,_ZNKSt16initializer_listI7QVectorIiEE3endEv
FN:79,_ZNKSt16initializer_listIiE3endEv
FNDA:32,_ZNKSt16initializer_listIiE3endEv
DA:71,24
DA:71,132
DA:75,12
DA:75,64
DA:79,6
DA:79,32
end_of_record
SF:/home/juan/Documents/Tarea2-Datos2-UnitTesting/Datos-2-Tarea-1-Sockets-Punteros/Server/widget.h
end_of_record
TN:
SF:/home/juan/Qt/5.15.1/gcc_64/include/QtCore/qscopedpointer.h
FN:116,_ZNK14QScopedPointerI11QObjectData21QScopedPointerDeleterIS0_EEptEv
FNDA:381,_ZNK14QScopedPointerI11QObjectData21QScopedPointerDeleterIS0_EEptEv
DA:116,381
DA:118,381
end_of_record
SF:/home/juan/Documents/Tarea2-Datos2-UnitTesting/Datos-2-Tarea-1-Sockets-Punteros/build-Server-Desktop_Qt_5_15_1_GCC_64bit-Debug/moc_widget.cpp
FN:82,_ZN6Widget18qt_static_metacallEP7QObjectN11QMetaObject4CallEiPPv
FNDA:5,_ZN6Widget18qt_static_metacallEP7QObjectN11QMetaObject4CallEiPPv
FN:109,_ZNK6Widget10metaObjectEv
FNDA:378,_ZNK6Widget10metaObjectEv
FN:114,_ZN6Widget11qt_metacastEPKc
FNDA:20,_ZN6Widget11qt_metacastEPKc
FN:122,_ZN6Widget11qt_metacallEN11QMetaObject4CallEiPPv
FNDA:5,_ZN6Widget11qt_metacallEN11QMetaObject4CallEiPPv
DA:82,5
DA:84,5
DA:85,5
DA:87,5
DA:88,1
DA:89,1
DA:90,1
DA:91,1
DA:92,1
DA:93,5
DA:97,5
DA:109,378
DA:111,378
DA:114,20
DA:116,20
DA:117,20
DA:118,0
DA:119,20
DA:122,5
DA:124,5
DA:125,5
DA:126,0
DA:127,5
DA:128,5
DA:129,5
DA:130,5
DA:131,0
DA:132,0
DA:133,0
DA:134,0
DA:136,5
end_of_record
TN:
SF:/home/juan/Qt/5.15.1/gcc_64/include/QtCore/qscopedpointer.h
FN:116,_ZNK14QScopedPointerI11QObjectData21QScopedPointerDeleterIS0_EEptEv
FNDA:0,_ZNK14QScopedPointerI11QObjectData21QScopedPointerDeleterIS0_EEptEv
DA:116,0
DA:118,0
end_of_record
SF:/home/juan/Documents/Tarea2-Datos2-UnitTesting/Datos-2-Tarea-1-Sockets-Punteros/Server/serverclass.h
end_of_record
SF:/home/juan/Documents/Tarea2-Datos2-UnitTesting/Datos-2-Tarea-1-Sockets-Punteros/build-Server-Desktop_Qt_5_15_1_GCC_64bit-Debug/moc_serverclass.cpp
FN:58,_ZN11serverClass18qt_static_metacallEP7QObjectN11QMetaObject4CallEiPPv
FNDA:0,_ZN11serverClass18qt_static_metacallEP7QObjectN11QMetaObject4CallEiPPv
FN:76,_ZNK11serverClass10metaObjectEv
FNDA:3,_ZNK11serverClass10metaObjectEv
FN:81,_ZN11serverClass11qt_metacastEPKc
FNDA:0,_ZN11serverClass11qt_metacastEPKc
FN:89,_ZN11serverClass11qt_metacallEN11QMetaObject4CallEiPPv
FNDA:0,_ZN11serverClass11qt_metacallEN11QMetaObject4CallEiPPv
DA:58,0
DA:64,0
DA:76,3
DA:78,3
DA:81,0
DA:83,0
DA:84,0
DA:85,0
DA:86,0
DA:89,0
DA:91,0
DA:92,0
end_of_record
