TN:
SF:/home/juan/Documents/Tarea2-Datos2-UnitTesting/Datos-2-Tarea-1-Sockets-Punteros/Server/graph.cpp
FN:12,_ZN5GraphC2E7QVectorIS0_IiEE
FN:28,_ZN5Graph11actualEdgesE7QVectorI4EdgeEi
FN:53,_ZN5Graph8findEdgeE7QVectorIiEi
FN:76,_ZN5Graph12findDistanceE7QVectorI4EdgeEii
FN:98,_ZN5Graph12createMatrixE7QVectorI4EdgeEii
FN:165,_ZN5Graph9printPathE7QVectorIS0_IiEEii
FN:187,_ZN5Graph13printSolutionE7QVectorIS0_IiEEiii
FN:243,_ZN5Graph13floydWarshallE7QVectorIS0_IiEEiiii
FNDA:12,_ZN5Graph8findEdgeE7QVectorIiEi
FNDA:1,_ZN5Graph9printPathE7QVectorIS0_IiEEii
FNDA:6,_ZN5Graph12findDistanceE7QVectorI4EdgeEii
FNDA:1,_ZN5Graph13printSolutionE7QVectorIS0_IiEEiii
FNDA:1,_ZN5GraphC2E7QVectorIS0_IiEE
FNDA:1,_ZN5Graph13floydWarshallE7QVectorIS0_IiEEiiii
FNDA:1,_ZN5Graph12createMatrixE7QVectorI4EdgeEii
FNDA:4,_ZN5Graph11actualEdgesE7QVectorI4EdgeEi
FNF:8
FNH:8
DA:12,1
DA:14,7
DA:16,6
DA:20,1
DA:28,4
DA:30,8
DA:31,4
DA:33,28
DA:35,24
DA:37,6
DA:43,8
DA:53,12
DA:55,22
DA:57,16
DA:59,6
DA:65,6
DA:76,6
DA:78,21
DA:80,21
DA:82,6
DA:88,0
DA:98,1
DA:100,1
DA:101,1
DA:102,1
DA:103,1
DA:104,1
DA:105,1
DA:107,2
DA:108,1
DA:110,2
DA:111,1
DA:113,2
DA:115,5
DA:117,4
DA:119,20
DA:121,16
DA:123,4
DA:124,4
DA:128,12
DA:130,6
DA:134,6
DA:142,4
DA:144,4
DA:146,4
DA:148,4
DA:150,4
DA:154,2
DA:165,1
DA:167,1
DA:169,1
DA:173,0
DA:175,0
DA:187,1
DA:189,2
DA:190,2
DA:192,1
DA:194,5
DA:196,20
DA:198,16
DA:200,12
DA:202,1
DA:203,1
DA:204,1
DA:205,1
DA:206,1
DA:207,1
DA:208,1
DA:210,1
DA:212,1
DA:214,0
DA:215,0
DA:219,1
DA:220,1
DA:230,2
DA:243,1
DA:245,6
DA:246,6
DA:248,5
DA:250,20
DA:252,16
DA:254,16
DA:256,4
DA:258,12
DA:260,6
DA:264,6
DA:272,5
DA:274,20
DA:276,80
DA:278,103
DA:279,39
DA:281,6
DA:282,6
DA:288,16
DA:290,0
DA:298,1
LF:96
LH:90
end_of_record
TN:
SF:/home/juan/Documents/Tarea2-Datos2-UnitTesting/Datos-2-Tarea-1-Sockets-Punteros/Server/main.cpp
FN:10,main
FNDA:4,main
FNF:1
FNH:1
DA:10,4
DA:12,8
DA:13,8
DA:14,4
DA:16,4
LF:5
LH:5
end_of_record
TN:
SF:/home/juan/Documents/Tarea2-Datos2-UnitTesting/Datos-2-Tarea-1-Sockets-Punteros/Server/serverclass.cpp
FN:9,_ZN11serverClassC2EP7QObject
FN:13,_ZZN11serverClassC4EP7QObjectENKUlvE_clEv
FN:25,_ZN11serverClass11sendMessageERK7QString
FNDA:1,_ZN11serverClass11sendMessageERK7QString
FNDA:4,_ZN11serverClassC2EP7QObject
FNDA:1,_ZZN11serverClassC4EP7QObjectENKUlvE_clEv
FNF:3
FNH:3
DA:9,4
DA:11,4
DA:13,4
DA:15,1
DA:17,1
DA:19,4
DA:25,1
DA:27,1
DA:29,2
DA:30,1
DA:31,1
DA:35,1
LF:12
LH:12
end_of_record
TN:
SF:/home/juan/Documents/Tarea2-Datos2-UnitTesting/Datos-2-Tarea-1-Sockets-Punteros/Server/widget.cpp
FN:34,_ZN6WidgetC2EP7QWidget
FN:51,_ZN6WidgetD2Ev
FN:51,_ZN6WidgetD0Ev
FN:60,_ZN6Widget26on_startPushButton_clickedEv
FN:77,_ZN6Widget31on_sendResultPushButton_clickedEv
FN:92,_ZN6Widget30on_readStartPushButton_clickedEv
FN:108,_ZN6Widget28on_readEndPushButton_clickedEv
FN:124,_ZN6Widget26on_closePushButton_clickedEv
FNDA:1,_ZN6Widget30on_readStartPushButton_clickedEv
FNDA:0,_ZN6WidgetD0Ev
FNDA:4,_ZN6WidgetD2Ev
FNDA:1,_ZN6Widget26on_startPushButton_clickedEv
FNDA:1,_ZN6Widget26on_closePushButton_clickedEv
FNDA:1,_ZN6Widget31on_sendResultPushButton_clickedEv
FNDA:1,_ZN6Widget28on_readEndPushButton_clickedEv
FNDA:4,_ZN6WidgetC2EP7QWidget
FNF:8
FNH:7
DA:34,4
DA:36,4
DA:37,4
DA:39,4
DA:41,4
DA:42,4
DA:44,4
DA:46,4
DA:51,4
DA:53,4
DA:55,4
DA:60,1
DA:62,1
DA:64,0
DA:68,1
DA:72,1
DA:77,1
DA:79,2
DA:81,2
DA:83,2
DA:85,1
DA:87,1
DA:92,1
DA:94,2
DA:96,2
DA:98,1
DA:100,1
DA:101,1
DA:103,1
DA:108,1
DA:110,2
DA:112,2
DA:114,1
DA:116,1
DA:117,1
DA:119,1
DA:124,1
DA:126,1
DA:128,1
LF:39
LH:38
end_of_record
TN:
SF:/usr/include/c++/9/atomic
FN:759,_ZNSt6atomicIiEC2Ei
FNDA:4,_ZNSt6atomicIiEC2Ei
FNF:1
FNH:1
DA:759,4
LF:1
LH:1
end_of_record
TN:
SF:/usr/include/c++/9/initializer_list
FN:71,_ZNKSt16initializer_listI7QVectorIiEE4sizeEv
FN:71,_ZNKSt16initializer_listIiE4sizeEv
FN:75,_ZNKSt16initializer_listIiE5beginEv
FN:75,_ZNKSt16initializer_listI7QVectorIiEE5beginEv
FN:79,_ZNKSt16initializer_listI7QVectorIiEE3endEv
FN:79,_ZNKSt16initializer_listIiE3endEv
FNDA:24,_ZNKSt16initializer_listI7QVectorIiEE4sizeEv
FNDA:132,_ZNKSt16initializer_listIiE4sizeEv
FNDA:64,_ZNKSt16initializer_listIiE5beginEv
FNDA:12,_ZNKSt16initializer_listI7QVectorIiEE5beginEv
FNDA:6,_ZNKSt16initializer_listI7QVectorIiEE3endEv
FNDA:32,_ZNKSt16initializer_listIiE3endEv
FNF:6
FNH:6
DA:71,156
DA:75,76
DA:79,38
LF:3
LH:3
end_of_record
TN:
SF:/usr/include/c++/9/new
FN:173,_ZnwmPv
FN:179,_ZdlPvS_
FNDA:70,_ZnwmPv
FNDA:0,_ZdlPvS_
FNF:2
FNH:1
DA:173,70
DA:174,70
DA:179,0
LF:3
LH:2
end_of_record
